target datalayout = "e-m:e-p270:32:32-p271:32:32-p272:64:64-i64:64-i128:128-f80:128-n8:16:32:64-S128"
target triple = "x86_64-pc-linux-gnu"

%"class.OpenImageIO::v3_1_0::Sysutil::Term" = type { i8 }

; Function Attrs: mustprogress nounwind uwtable
define void @_ZN11OpenImageIO6v3_1_07Sysutil4TermC2EP8_IO_FILE(ptr noundef nonnull align 1 dereferenceable(1) %0, ptr noundef %1) unnamed_addr #10 align 2 {
  %3 = alloca ptr, align 8
  %4 = alloca ptr, align 8
  store ptr %0, ptr %3, align 8, !tbaa !44
  store ptr %1, ptr %4, align 8, !tbaa !12
  %5 = load ptr, ptr %3, align 8
  %6 = getelementptr inbounds nuw %"class.OpenImageIO::v3_1_0::Sysutil::Term", ptr %5, i32 0, i32 0
  store i8 1, ptr %6, align 1, !tbaa !46
  %7 = load ptr, ptr %4, align 8, !tbaa !12
  %8 = call i32 @fileno(ptr noundef %7) #3
  %9 = call i32 @isatty(i32 noundef %8) #3
  %10 = icmp ne i32 %9, 0
  %11 = getelementptr inbounds nuw %"class.OpenImageIO::v3_1_0::Sysutil::Term", ptr %5, i32 0, i32 0
  %12 = zext i1 %10 to i8
  store i8 %12, ptr %11, align 1, !tbaa !46
  ret void
}