; Function Attrs: mustprogress nounwind uwtable
define void @_ZN11OpenImageIO6v3_1_07Sysutil4TermC2EP8_IO_FILE(ptr noundef nonnull writeonly align 1 captures(none) dereferenceable(1) initializes((0, 1)) %0, ptr noundef captures(none) %1) unnamed_addr #11 align 2 {
  store i8 1, ptr %0, align 1, !tbaa !27
  %3 = tail call i32 @fileno(ptr noundef %1) #32
  %4 = tail call i32 @isatty(i32 noundef %3) #32
  %5 = icmp ne i32 %4, 0
  %6 = zext i1 %5 to i8
  store i8 %6, ptr %0, align 1, !tbaa !27
  ret void
}